ccopy_reg
_reconstructor
p0
(cpandas.core.frame
DataFrame
p1
c__builtin__
object
p2
Ntp3
Rp4
(dp5
S'_metadata'
p6
(lp7
sS'_typ'
p8
S'dataframe'
p9
sS'_data'
p10
g0
(cpandas.core.internals
BlockManager
p11
g2
Ntp12
Rp13
((lp14
cpandas.core.indexes.base
_new_Index
p15
(cpandas.core.indexes.base
Index
p16
(dp17
S'data'
p18
cnumpy.core.multiarray
_reconstruct
p19
(cnumpy
ndarray
p20
(I0
tp21
S'b'
p22
tp23
Rp24
(I1
(I4
tp25
cnumpy
dtype
p26
(S'O8'
p27
I0
I1
tp28
Rp29
(I3
S'|'
p30
NNNI-1
I-1
I63
tp31
bI00
(lp32
Vname
p33
aVsex
p34
aVage
p35
aVbirthdate
p36
atp37
bsS'name'
p38
Nstp39
Rp40
ag15
(cpandas.core.indexes.range
RangeIndex
p41
(dp42
S'start'
p43
I0
sS'step'
p44
I1
sS'stop'
p45
I60
sg38
Nstp46
Rp47
a(lp48
g19
(g20
(I0
tp49
g22
tp50
Rp51
(I1
(I4
I60
tp52
g29
I00
(lp53
Vs00318
p54
aVs00439
p55
aVs02172
p56
aVs02280
p57
aVs02395
p58
aVs02561
p59
aVs03133
p60
aVs04286
p61
aVs04860
p62
aVs05126
p63
aVs05289
p64
aVs05336
p65
aVs05786
p66
aVs06180
p67
aVs06349
p68
aVs06637
p69
aVs07125
p70
aVs07468
p71
aVs08718
p72
aVs08779
p73
aVs09341
p74
aVs09672
p75
aVs10611
p76
aVs12821
p77
aVs14204
p78
aVs14495
p79
aVs15465
p80
aVs15687
p81
aVs16019
p82
aVs17069
p83
aVs17765
p84
aVs19208
p85
aVs19418
p86
aVs19603
p87
aVs20658
p88
aVs20794
p89
aVs21775
p90
aVs21817
p91
aVs22466
p92
aVs22657
p93
aVs22888
p94
ag94
aVs23015
p95
aVs23020
p96
aVs23591
p97
aVs23594
p98
aVs23641
p99
aVs24004
p100
aVs24431
p101
aVs24799
p102
aVs24923
p103
aVs24924
p104
aVs24984
p105
aVs25222
p106
aVs25602
p107
aVs25699
p108
aVs26097
p109
aVs26105
p110
aVs26296
p111
aVs26318
p112
aVM
p113
aVF
p114
ag113
ag113
ag114
ag114
ag113
ag113
ag114
ag114
ag113
ag113
ag113
ag114
ag114
ag113
ag113
ag114
ag113
ag113
ag114
ag114
ag113
ag114
ag114
ag113
ag113
ag114
ag114
ag114
ag113
ag114
ag114
ag114
ag114
ag113
ag113
ag114
ag114
ag113
ag113
ag113
ag113
ag114
ag113
ag114
ag113
ag113
ag113
ag113
ag114
ag114
ag113
ag114
ag114
ag113
ag114
ag113
ag113
ag113
aI58
aI82
aI32
aI58
aI80
aI81
aI46
aI61
aI57
aI69
aI76
aI40
aI54
aI45
aI89
aI78
aI53
aI71
aI88
aI58
aI62
aI46
aI78
aI77
aI89
aI59
aI67
aV90+
p115
ag115
aI61
aI51
aI78
aI39
aI75
aI72
aI85
aI75
aI73
aI76
aI88
aI45
aI48
aI68
aI84
aI85
aI66
ag115
aI66
aI22
aI66
aI82
aI79
aI56
aI60
aI77
aI35
aI42
aI47
aI47
aI65
aV11/10/1950
p116
aV22/12/1930
p117
acdatetime
datetime
p118
(S'\x07\xbe\x07\x07\x00\x00\x00\x00\x00\x00'
p119
tp120
Rp121
aV04/07/1957
p122
aV30/03/1931
p123
aV03/09/1931
p124
aV11/02/1969
p125
aV04/07/1955
p126
aV26/06/1952
p127
aV21/06/1940
p128
aV21/02/1934
p129
aV17/01/1971
p130
aV23/10/1958
p131
aV03/07/1963
p132
aV20/01/1921
p133
aV28/10/1933
p134
aV20/08/1964
p135
aV27/08/1941
p136
aV19/12/1926
p137
aV15/11/1955
p138
aV12/02/1949
p139
aV01/06/1969
p140
aV28/02/1934
p141
aV12/09/1938
p142
aV13/05/1924
p143
aV26/02/1956
p144
aV22/07/1945
p145
aV**/**/****
p146
ag146
aV17/01/1955
p147
aV23/06/1965
p148
aV27/01/1932
p149
ag118
(S'\x07\xb3\x0b\x03\x00\x00\x00\x00\x00\x00'
p150
tp151
Rp152
aV08/10/1933
p153
aV09/02/1944
p154
aV31/03/1929
p155
aV02/06/1933
p156
aV30/06/1939
p157
aV14/06/1937
p158
aV24/06/1924
p159
aV01/01/1970
p160
aV05/01/1967
p161
aV29/01/1944
p162
aV04/04/1930
p163
aV11/01/1930
p164
aV03/07/1943
p165
ag146
aV11/03/1944
p166
aV23/02/1988
p167
aV03/05/1943
p168
aV02/09/1926
p169
aV23/06/1934
p170
aV09/05/1953
p171
aV24/01/1952
p172
aV27/12/1931
p173
ag118
(S'\x07\xb9\x03\x08\x00\x00\x00\x00\x00\x00'
p174
tp175
Rp176
aV13/10/1971
p177
aV14/01/1969
p178
aV10/06/1969
p179
aV18/04/1946
p180
atp181
ba(lp182
g15
(g16
(dp183
g18
g19
(g20
(I0
tp184
g22
tp185
Rp186
(I1
(I4
tp187
g29
I00
(lp188
g33
ag34
ag35
ag36
atp189
bsg38
Nstp190
Rp191
a(dp192
S'0.14.1'
p193
(dp194
S'axes'
p195
g14
sS'blocks'
p196
(lp197
(dp198
S'mgr_locs'
p199
c__builtin__
slice
p200
(I0
I4
I1
tp201
Rp202
sS'values'
p203
g51
sasstp204
bsb.