(lp0
S's00318/\n'
p1
aS's00439/\n'
p2
aS's02172/\n'
p3
aS's02280/\n'
p4
aS's02395/\n'
p5
aS's02561/\n'
p6
aS's03133/\n'
p7
aS's04286/\n'
p8
aS's04860/\n'
p9
aS's05126/\n'
p10
aS's05289/\n'
p11
aS's05336/\n'
p12
aS's05786/\n'
p13
aS's06180/\n'
p14
aS's06349/\n'
p15
aS's06637/\n'
p16
aS's07125/\n'
p17
aS's07468/\n'
p18
aS's08718/\n'
p19
aS's08779/\n'
p20
aS's09341/\n'
p21
aS's09672/\n'
p22
aS's10611/\n'
p23
aS's10676/\n'
p24
aS's12821/\n'
p25
aS's14204/\n'
p26
aS's14495/\n'
p27
aS's15465/\n'
p28
aS's15687/\n'
p29
aS's16019/\n'
p30
aS's17069/\n'
p31
aS's17765/\n'
p32
aS's19208/\n'
p33
aS's19418/\n'
p34
aS's19603/\n'
p35
aS's20658/\n'
p36
aS's20794/\n'
p37
aS's21775/\n'
p38
aS's21817/\n'
p39
aS's22466/\n'
p40
aS's22657/\n'
p41
aS's22888/\n'
p42
aS's23015/\n'
p43
aS's23020/\n'
p44
aS's23591/\n'
p45
aS's23594/\n'
p46
aS's23641/\n'
p47
aS's24004/\n'
p48
aS's24431/\n'
p49
aS's24799/\n'
p50
aS's24923/\n'
p51
aS's24924/\n'
p52
aS's24984/\n'
p53
aS's25222/\n'
p54
aS's25602/\n'
p55
aS's25699/\n'
p56
aS's26097/  \n'
p57
aS's26105/\n'
p58
aS's26296/\n'
p59
aS's26318/'
p60
a.